; Function Attrs: nounwind uwtable
define void @jitter_d(ptr noundef readonly captures(none) %0, i32 noundef %1, i32 noundef %2) local_unnamed_addr #4 {
  %4 = load i16, ptr @Ndim, align 2, !tbaa !71
  %5 = zext i16 %4 to i32
  %6 = icmp slt i32 %2, %5
  br i1 %6, label %.lr.ph, label %._crit_edge

.lr.ph:                                           ; preds = %3
  %7 = sitofp i32 %1 to double
  %8 = getelementptr inbounds nuw i8, ptr %0, i64 16
  %9 = sext i32 %2 to i64
  br label %10

10:                                               ; preds = %.lr.ph, %10
  %indvars.iv = phi i64 [ %9, %.lr.ph ], [ %indvars.iv.next, %10 ]
  %11 = tail call double @drand48() #21
  %12 = fmul double %11, %7
  %13 = load ptr, ptr %8, align 8, !tbaa !40
  %14 = getelementptr inbounds nuw i8, ptr %13, i64 176
  %15 = load ptr, ptr %14, align 8, !tbaa !86
  %16 = getelementptr inbounds double, ptr %15, i64 %indvars.iv
  store double %12, ptr %16, align 8, !tbaa !10
  %indvars.iv.next = add nsw i64 %indvars.iv, 1
  %17 = load i16, ptr @Ndim, align 2, !tbaa !71
  %18 = zext i16 %17 to i64
  %19 = icmp slt i64 %indvars.iv.next, %18
  br i1 %19, label %10, label %._crit_edge, !llvm.loop !87

._crit_edge:                                      ; preds = %10, %3
  ret void
}